
base.exe:     file format elf64-littleaarch64


Disassembly of section .init:

00000000000005d8 <_init>:
 5d8:	d503201f 	nop
 5dc:	a9bf7bfd 	stp	x29, x30, [sp, #-16]!
 5e0:	910003fd 	mov	x29, sp
 5e4:	94000034 	bl	6b4 <call_weak_fn>
 5e8:	a8c17bfd 	ldp	x29, x30, [sp], #16
 5ec:	d65f03c0 	ret

Disassembly of section .plt:

00000000000005f0 <.plt>:
 5f0:	a9bf7bf0 	stp	x16, x30, [sp, #-16]!
 5f4:	f00000f0 	adrp	x16, 1f000 <__FRAME_END__+0x1e4c0>
 5f8:	f947fe11 	ldr	x17, [x16, #4088]
 5fc:	913fe210 	add	x16, x16, #0xff8
 600:	d61f0220 	br	x17
 604:	d503201f 	nop
 608:	d503201f 	nop
 60c:	d503201f 	nop

0000000000000610 <__libc_start_main@plt>:
 610:	90000110 	adrp	x16, 20000 <__libc_start_main@GLIBC_2.34>
 614:	f9400211 	ldr	x17, [x16]
 618:	91000210 	add	x16, x16, #0x0
 61c:	d61f0220 	br	x17

0000000000000620 <__cxa_finalize@plt>:
 620:	90000110 	adrp	x16, 20000 <__libc_start_main@GLIBC_2.34>
 624:	f9400611 	ldr	x17, [x16, #8]
 628:	91002210 	add	x16, x16, #0x8
 62c:	d61f0220 	br	x17

0000000000000630 <gettimeofday@plt>:
 630:	90000110 	adrp	x16, 20000 <__libc_start_main@GLIBC_2.34>
 634:	f9400a11 	ldr	x17, [x16, #16]
 638:	91004210 	add	x16, x16, #0x10
 63c:	d61f0220 	br	x17

0000000000000640 <__gmon_start__@plt>:
 640:	90000110 	adrp	x16, 20000 <__libc_start_main@GLIBC_2.34>
 644:	f9400e11 	ldr	x17, [x16, #24]
 648:	91006210 	add	x16, x16, #0x18
 64c:	d61f0220 	br	x17

0000000000000650 <abort@plt>:
 650:	90000110 	adrp	x16, 20000 <__libc_start_main@GLIBC_2.34>
 654:	f9401211 	ldr	x17, [x16, #32]
 658:	91008210 	add	x16, x16, #0x20
 65c:	d61f0220 	br	x17

0000000000000660 <printf@plt>:
 660:	90000110 	adrp	x16, 20000 <__libc_start_main@GLIBC_2.34>
 664:	f9401611 	ldr	x17, [x16, #40]
 668:	9100a210 	add	x16, x16, #0x28
 66c:	d61f0220 	br	x17

Disassembly of section .text:

0000000000000680 <_start>:
 680:	d503201f 	nop
 684:	d280001d 	mov	x29, #0x0                   	// #0
 688:	d280001e 	mov	x30, #0x0                   	// #0
 68c:	aa0003e5 	mov	x5, x0
 690:	f94003e1 	ldr	x1, [sp]
 694:	910023e2 	add	x2, sp, #0x8
 698:	910003e6 	mov	x6, sp
 69c:	f00000e0 	adrp	x0, 1f000 <__FRAME_END__+0x1e4c0>
 6a0:	f947ec00 	ldr	x0, [x0, #4056]
 6a4:	d2800003 	mov	x3, #0x0                   	// #0
 6a8:	d2800004 	mov	x4, #0x0                   	// #0
 6ac:	97ffffd9 	bl	610 <__libc_start_main@plt>
 6b0:	97ffffe8 	bl	650 <abort@plt>

00000000000006b4 <call_weak_fn>:
 6b4:	f00000e0 	adrp	x0, 1f000 <__FRAME_END__+0x1e4c0>
 6b8:	f947e800 	ldr	x0, [x0, #4048]
 6bc:	b4000040 	cbz	x0, 6c4 <call_weak_fn+0x10>
 6c0:	17ffffe0 	b	640 <__gmon_start__@plt>
 6c4:	d65f03c0 	ret
 6c8:	d503201f 	nop
 6cc:	d503201f 	nop

00000000000006d0 <deregister_tm_clones>:
 6d0:	90000100 	adrp	x0, 20000 <__libc_start_main@GLIBC_2.34>
 6d4:	91010000 	add	x0, x0, #0x40
 6d8:	90000101 	adrp	x1, 20000 <__libc_start_main@GLIBC_2.34>
 6dc:	91010021 	add	x1, x1, #0x40
 6e0:	eb00003f 	cmp	x1, x0
 6e4:	540000c0 	b.eq	6fc <deregister_tm_clones+0x2c>  // b.none
 6e8:	f00000e1 	adrp	x1, 1f000 <__FRAME_END__+0x1e4c0>
 6ec:	f947e021 	ldr	x1, [x1, #4032]
 6f0:	b4000061 	cbz	x1, 6fc <deregister_tm_clones+0x2c>
 6f4:	aa0103f0 	mov	x16, x1
 6f8:	d61f0200 	br	x16
 6fc:	d65f03c0 	ret

0000000000000700 <register_tm_clones>:
 700:	90000100 	adrp	x0, 20000 <__libc_start_main@GLIBC_2.34>
 704:	91010000 	add	x0, x0, #0x40
 708:	90000101 	adrp	x1, 20000 <__libc_start_main@GLIBC_2.34>
 70c:	91010021 	add	x1, x1, #0x40
 710:	cb000021 	sub	x1, x1, x0
 714:	d37ffc22 	lsr	x2, x1, #63
 718:	8b810c41 	add	x1, x2, x1, asr #3
 71c:	9341fc21 	asr	x1, x1, #1
 720:	b40000c1 	cbz	x1, 738 <register_tm_clones+0x38>
 724:	f00000e2 	adrp	x2, 1f000 <__FRAME_END__+0x1e4c0>
 728:	f947f042 	ldr	x2, [x2, #4064]
 72c:	b4000062 	cbz	x2, 738 <register_tm_clones+0x38>
 730:	aa0203f0 	mov	x16, x2
 734:	d61f0200 	br	x16
 738:	d65f03c0 	ret
 73c:	d503201f 	nop

0000000000000740 <__do_global_dtors_aux>:
 740:	a9be7bfd 	stp	x29, x30, [sp, #-32]!
 744:	910003fd 	mov	x29, sp
 748:	f9000bf3 	str	x19, [sp, #16]
 74c:	90000113 	adrp	x19, 20000 <__libc_start_main@GLIBC_2.34>
 750:	39410260 	ldrb	w0, [x19, #64]
 754:	35000140 	cbnz	w0, 77c <__do_global_dtors_aux+0x3c>
 758:	f00000e0 	adrp	x0, 1f000 <__FRAME_END__+0x1e4c0>
 75c:	f947e400 	ldr	x0, [x0, #4040]
 760:	b4000080 	cbz	x0, 770 <__do_global_dtors_aux+0x30>
 764:	90000100 	adrp	x0, 20000 <__libc_start_main@GLIBC_2.34>
 768:	f9401c00 	ldr	x0, [x0, #56]
 76c:	97ffffad 	bl	620 <__cxa_finalize@plt>
 770:	97ffffd8 	bl	6d0 <deregister_tm_clones>
 774:	52800020 	mov	w0, #0x1                   	// #1
 778:	39010260 	strb	w0, [x19, #64]
 77c:	f9400bf3 	ldr	x19, [sp, #16]
 780:	a8c27bfd 	ldp	x29, x30, [sp], #32
 784:	d65f03c0 	ret
 788:	d503201f 	nop
 78c:	d503201f 	nop

0000000000000790 <frame_dummy>:
 790:	17ffffdc 	b	700 <register_tm_clones>

0000000000000794 <swap_int>:
 794:	b9400028 	ldr	w8, [x1]
 798:	b9400009 	ldr	w9, [x0]
 79c:	b9000008 	str	w8, [x0]
 7a0:	b9000029 	str	w9, [x1]
 7a4:	d65f03c0 	ret

00000000000007a8 <bubble_sort>:
 7a8:	7100083f 	cmp	w1, #0x2
 7ac:	5400036b 	b.lt	818 <bubble_sort+0x70>  // b.tstop
 7b0:	51000428 	sub	w8, w1, #0x1
 7b4:	aa1f03eb 	mov	x11, xzr
 7b8:	91001009 	add	x9, x0, #0x4
 7bc:	d100050a 	sub	x10, x8, #0x1
 7c0:	14000006 	b	7d8 <bubble_sort+0x30>
 7c4:	91001129 	add	x9, x9, #0x4
 7c8:	d100054a 	sub	x10, x10, #0x1
 7cc:	aa0c03eb 	mov	x11, x12
 7d0:	eb08019f 	cmp	x12, x8
 7d4:	54000220 	b.eq	818 <bubble_sort+0x70>  // b.none
 7d8:	9100056c 	add	x12, x11, #0x1
 7dc:	eb08019f 	cmp	x12, x8
 7e0:	54ffff22 	b.cs	7c4 <bubble_sort+0x1c>  // b.hs, b.nlast
 7e4:	aa0a03ed 	mov	x13, x10
 7e8:	aa0903ee 	mov	x14, x9
 7ec:	14000004 	b	7fc <bubble_sort+0x54>
 7f0:	910011ce 	add	x14, x14, #0x4
 7f4:	f10005ad 	subs	x13, x13, #0x1
 7f8:	54fffe60 	b.eq	7c4 <bubble_sort+0x1c>  // b.none
 7fc:	b86b780f 	ldr	w15, [x0, x11, lsl #2]
 800:	b94001d0 	ldr	w16, [x14]
 804:	6b1001ff 	cmp	w15, w16
 808:	54ffff4a 	b.ge	7f0 <bubble_sort+0x48>  // b.tcont
 80c:	b82b7810 	str	w16, [x0, x11, lsl #2]
 810:	b90001cf 	str	w15, [x14]
 814:	17fffff7 	b	7f0 <bubble_sort+0x48>
 818:	d65f03c0 	ret

000000000000081c <get_data>:
 81c:	90000008 	adrp	x8, 0 <__abi_tag-0x254>
 820:	90000109 	adrp	x9, 20000 <__libc_start_main@GLIBC_2.34>
 824:	91016129 	add	x9, x9, #0x58
 828:	4f000480 	movi	v0.4s, #0x4
 82c:	4f000501 	movi	v1.4s, #0x8
 830:	3dc27102 	ldr	q2, [x8, #2496]
 834:	52871008 	mov	w8, #0x3880                	// #14464
 838:	72a00028 	movk	w8, #0x1, lsl #16
 83c:	4ea08443 	add	v3.4s, v2.4s, v0.4s
 840:	f1002108 	subs	x8, x8, #0x8
 844:	ad3f8d22 	stp	q2, q3, [x9, #-16]
 848:	91008129 	add	x9, x9, #0x20
 84c:	4ea18442 	add	v2.4s, v2.4s, v1.4s
 850:	54ffff61 	b.ne	83c <get_data+0x20>  // b.any
 854:	d5033fbf 	dmb	sy
 858:	d65f03c0 	ret

000000000000085c <main>:
 85c:	d100c3ff 	sub	sp, sp, #0x30
 860:	a9017bfd 	stp	x29, x30, [sp, #16]
 864:	a9024ff4 	stp	x20, x19, [sp, #32]
 868:	910043fd 	add	x29, sp, #0x10
 86c:	90000008 	adrp	x8, 0 <__abi_tag-0x254>
 870:	52870fd4 	mov	w20, #0x387e                	// #14462
 874:	72a00034 	movk	w20, #0x1, lsl #16
 878:	90000109 	adrp	x9, 20000 <__libc_start_main@GLIBC_2.34>
 87c:	91016129 	add	x9, x9, #0x58
 880:	4f000480 	movi	v0.4s, #0x4
 884:	3dc27102 	ldr	q2, [x8, #2496]
 888:	4f000501 	movi	v1.4s, #0x8
 88c:	91000a88 	add	x8, x20, #0x2
 890:	4ea08443 	add	v3.4s, v2.4s, v0.4s
 894:	f1002108 	subs	x8, x8, #0x8
 898:	ad3f8d22 	stp	q2, q3, [x9, #-16]
 89c:	91008129 	add	x9, x9, #0x20
 8a0:	4ea18442 	add	v2.4s, v2.4s, v1.4s
 8a4:	54ffff61 	b.ne	890 <main+0x34>  // b.any
 8a8:	d0000373 	adrp	x19, 6e000 <data+0x4dfb8>
 8ac:	91092273 	add	x19, x19, #0x248
 8b0:	aa1303e0 	mov	x0, x19
 8b4:	aa1f03e1 	mov	x1, xzr
 8b8:	d5033fbf 	dmb	sy
 8bc:	97ffff5d 	bl	630 <gettimeofday@plt>
 8c0:	52870fc8 	mov	w8, #0x387e                	// #14462
 8c4:	aa1f03eb 	mov	x11, xzr
 8c8:	72a00028 	movk	w8, #0x1, lsl #16
 8cc:	90000109 	adrp	x9, 20000 <__libc_start_main@GLIBC_2.34>
 8d0:	91013129 	add	x9, x9, #0x4c
 8d4:	9000010a 	adrp	x10, 20000 <__libc_start_main@GLIBC_2.34>
 8d8:	9101214a 	add	x10, x10, #0x48
 8dc:	14000007 	b	8f8 <main+0x9c>
 8e0:	d1000508 	sub	x8, x8, #0x1
 8e4:	91001129 	add	x9, x9, #0x4
 8e8:	aa0c03eb 	mov	x11, x12
 8ec:	9100068d 	add	x13, x20, #0x1
 8f0:	eb0d019f 	cmp	x12, x13
 8f4:	54000220 	b.eq	938 <main+0xdc>  // b.none
 8f8:	9100056c 	add	x12, x11, #0x1
 8fc:	eb14017f 	cmp	x11, x20
 900:	54ffff02 	b.cs	8e0 <main+0x84>  // b.hs, b.nlast
 904:	aa0903ed 	mov	x13, x9
 908:	aa0803ee 	mov	x14, x8
 90c:	14000004 	b	91c <main+0xc0>
 910:	f10005ce 	subs	x14, x14, #0x1
 914:	910011ad 	add	x13, x13, #0x4
 918:	54fffe40 	b.eq	8e0 <main+0x84>  // b.none
 91c:	b86b794f 	ldr	w15, [x10, x11, lsl #2]
 920:	b94001b0 	ldr	w16, [x13]
 924:	6b1001ff 	cmp	w15, w16
 928:	54ffff4a 	b.ge	910 <main+0xb4>  // b.tcont
 92c:	b82b7950 	str	w16, [x10, x11, lsl #2]
 930:	b90001af 	str	w15, [x13]
 934:	17fffff7 	b	910 <main+0xb4>
 938:	910003e0 	mov	x0, sp
 93c:	aa1f03e1 	mov	x1, xzr
 940:	97ffff3c 	bl	630 <gettimeofday@plt>
 944:	a94023ea 	ldp	x10, x8, [sp]
 948:	90000000 	adrp	x0, 0 <__abi_tag-0x254>
 94c:	91274000 	add	x0, x0, #0x9d0
 950:	a940266b 	ldp	x11, x9, [x19]
 954:	cb090108 	sub	x8, x8, x9
 958:	d29ef9e9 	mov	x9, #0xf7cf                	// #63439
 95c:	f2bc6a69 	movk	x9, #0xe353, lsl #16
 960:	f2d374a9 	movk	x9, #0x9ba5, lsl #32
 964:	f2e41889 	movk	x9, #0x20c4, lsl #48
 968:	9b497d08 	smulh	x8, x8, x9
 96c:	cb0b0149 	sub	x9, x10, x11
 970:	52807d0a 	mov	w10, #0x3e8                 	// #1000
 974:	9347fd0b 	asr	x11, x8, #7
 978:	8b48fd68 	add	x8, x11, x8, lsr #63
 97c:	9b0a2121 	madd	x1, x9, x10, x8
 980:	97ffff38 	bl	660 <printf@plt>
 984:	2a1f03e0 	mov	w0, wzr
 988:	a9424ff4 	ldp	x20, x19, [sp, #32]
 98c:	a9417bfd 	ldp	x29, x30, [sp, #16]
 990:	9100c3ff 	add	sp, sp, #0x30
 994:	d65f03c0 	ret

Disassembly of section .fini:

0000000000000998 <_fini>:
 998:	d503201f 	nop
 99c:	a9bf7bfd 	stp	x29, x30, [sp, #-16]!
 9a0:	910003fd 	mov	x29, sp
 9a4:	a8c17bfd 	ldp	x29, x30, [sp], #16
 9a8:	d65f03c0 	ret
